target datalayout = "e-m:e-p270:32:32-p271:32:32-p272:64:64-i64:64-i128:128-f80:128-n8:16:32:64-S128"
target triple = "x86_64-pc-linux-gnu"

%union.pthread_mutex_t = type { %struct.__pthread_mutex_s }
%struct.__pthread_mutex_s = type { i32, i32, i32, i32, i32, i16, i16, %struct.__pthread_internal_list }
%struct.__pthread_internal_list = type { ptr, ptr }
%union.pthread_cond_t = type { %struct.__pthread_cond_s }
%struct.__pthread_cond_s = type { %union.__atomic_wide_counter, %union.__atomic_wide_counter, [2 x i32], [2 x i32], i32, i32, [2 x i32] }
%union.__atomic_wide_counter = type { i64 }

@stderr = external global ptr, align 8
@storage_compact_plock = internal global %union.pthread_mutex_t zeroinitializer, align 8
@storage_compact_cond = internal global %union.pthread_cond_t zeroinitializer, align 8
@storage_compact_tid = internal global i64 0, align 8
@.str.33 = private unnamed_addr constant [41 x i8] c"Can't create storage_compact thread: %s\0A\00", align 1
@.str.34 = private unnamed_addr constant [15 x i8] c"mc-ext-compact\00", align 1

; Function Attrs: nounwind uwtable
define dso_local i32 @start_storage_compact_thread(ptr noundef %0) #0 {
  %2 = alloca i32, align 4
  %3 = alloca ptr, align 8
  %4 = alloca i32, align 4
  %5 = alloca i32, align 4
  store ptr %0, ptr %3, align 8, !tbaa !4
  call void @llvm.lifetime.start.p0(i64 4, ptr %4) #13
  %6 = call i32 @pthread_mutex_init(ptr noundef @storage_compact_plock, ptr noundef null) #13
  %7 = call i32 @pthread_cond_init(ptr noundef @storage_compact_cond, ptr noundef null) #13
  %8 = load ptr, ptr %3, align 8, !tbaa !4
  %9 = call i32 @pthread_create(ptr noundef @storage_compact_tid, ptr noundef null, ptr noundef @storage_compact_thread, ptr noundef %8) #13
  store i32 %9, ptr %4, align 4, !tbaa !17
  %10 = icmp ne i32 %9, 0
  br i1 %10, label %11, label %16

11:                                               ; preds = %1
  %12 = load ptr, ptr @stderr, align 8, !tbaa !159
  %13 = load i32, ptr %4, align 4, !tbaa !17
  %14 = call ptr @strerror(i32 noundef %13) #13
  %15 = call i32 (ptr, ptr, ...) @fprintf(ptr noundef %12, ptr noundef @.str.33, ptr noundef %14) #13
  store i32 -1, ptr %2, align 4
  store i32 1, ptr %5, align 4
  br label %18

16:                                               ; preds = %1
  %17 = load i64, ptr @storage_compact_tid, align 8, !tbaa !75
  call void @thread_setname(i64 noundef %17, ptr noundef @.str.34)
  store i32 0, ptr %2, align 4
  store i32 1, ptr %5, align 4
  br label %18

18:                                               ; preds = %16, %11
  call void @llvm.lifetime.end.p0(i64 4, ptr %4) #13
  %19 = load i32, ptr %2, align 4
  ret i32 %19
}