; Function Attrs: nounwind uwtable
define dso_local range(i32 -1, 1) i32 @start_storage_compact_thread(ptr noundef %0) local_unnamed_addr #0 {
  %2 = tail call i32 @pthread_mutex_init(ptr noundef nonnull @storage_compact_plock, ptr noundef null) #21
  %3 = tail call i32 @pthread_cond_init(ptr noundef nonnull @storage_compact_cond, ptr noundef null) #21
  %4 = tail call i32 @pthread_create(ptr noundef nonnull @storage_compact_tid, ptr noundef null, ptr noundef nonnull @storage_compact_thread, ptr noundef %0) #21
  %.not = icmp eq i32 %4, 0
  br i1 %.not, label %9, label %5

5:                                                ; preds = %1
  %6 = load ptr, ptr @stderr, align 8, !tbaa !156
  %7 = tail call ptr @strerror(i32 noundef %4) #21
  %8 = tail call i32 (ptr, ptr, ...) @fprintf(ptr noundef %6, ptr noundef nonnull @.str.33, ptr noundef %7) #24
  br label %11

9:                                                ; preds = %1
  %10 = load i64, ptr @storage_compact_tid, align 8, !tbaa !158
  tail call void @thread_setname(i64 noundef %10, ptr noundef nonnull @.str.34) #21
  br label %11

11:                                               ; preds = %9, %5
  %.0 = phi i32 [ -1, %5 ], [ 0, %9 ]
  ret i32 %.0
}